target datalayout = "e-m:e-p270:32:32-p271:32:32-p272:64:64-i64:64-i128:128-f80:128-n8:16:32:64-S128"
target triple = "x86_64-pc-linux-gnu"

%struct.X509V3_CONF_METHOD_st = type { ptr, ptr, ptr, ptr }
%struct.v3_ext_ctx = type { i32, ptr, ptr, ptr, ptr, ptr, ptr, ptr }

; Function Attrs: nounwind uwtable
define void @X509V3_string_free(ptr noundef %0, ptr noundef %1) #0 {
  %3 = alloca ptr, align 8
  %4 = alloca ptr, align 8
  store ptr %0, ptr %3, align 8, !tbaa !8
  store ptr %1, ptr %4, align 8, !tbaa !10
  %5 = load ptr, ptr %4, align 8, !tbaa !10
  %6 = icmp ne ptr %5, null
  br i1 %6, label %8, label %7

7:                                                ; preds = %2
  br label %25

8:                                                ; preds = %2
  %9 = load ptr, ptr %3, align 8, !tbaa !8
  %10 = getelementptr inbounds nuw %struct.v3_ext_ctx, ptr %9, i32 0, i32 5
  %11 = load ptr, ptr %10, align 8, !tbaa !47
  %12 = getelementptr inbounds nuw %struct.X509V3_CONF_METHOD_st, ptr %11, i32 0, i32 2
  %13 = load ptr, ptr %12, align 8, !tbaa !69
  %14 = icmp ne ptr %13, null
  br i1 %14, label %15, label %25

15:                                               ; preds = %8
  %16 = load ptr, ptr %3, align 8, !tbaa !8
  %17 = getelementptr inbounds nuw %struct.v3_ext_ctx, ptr %16, i32 0, i32 5
  %18 = load ptr, ptr %17, align 8, !tbaa !47
  %19 = getelementptr inbounds nuw %struct.X509V3_CONF_METHOD_st, ptr %18, i32 0, i32 2
  %20 = load ptr, ptr %19, align 8, !tbaa !69
  %21 = load ptr, ptr %3, align 8, !tbaa !8
  %22 = getelementptr inbounds nuw %struct.v3_ext_ctx, ptr %21, i32 0, i32 6
  %23 = load ptr, ptr %22, align 8, !tbaa !40
  %24 = load ptr, ptr %4, align 8, !tbaa !10
  call void %20(ptr noundef %23, ptr noundef %24)
  br label %25

25:                                               ; preds = %7, %15, %8
  ret void
}